; Function Attrs: mustprogress nounwind uwtable
define internal fastcc void @_ZN4llvm11SmallVectorIN12_GLOBAL__N_19ChainElemELj1EEC2ESt16initializer_listIS2_E(ptr noundef nonnull align 8 dereferenceable(40) %0, ptr %1) unnamed_addr #0 align 2 {
  %3 = getelementptr inbounds i8, ptr %0, i64 16
  tail call void @_ZN4llvm15SmallVectorBaseIjEC2EPvm(ptr noundef nonnull align 8 dereferenceable(16) %0, ptr noundef nonnull %3, i64 noundef 1) #17
  %4 = tail call noundef i64 @_ZNK4llvm15SmallVectorBaseIjE4sizeEv(ptr noundef nonnull align 8 dereferenceable(16) %0) #17
  %5 = tail call noundef i64 @_ZNK4llvm15SmallVectorBaseIjE4sizeEv(ptr noundef nonnull align 8 dereferenceable(16) %0) #17
  %6 = tail call noundef i64 @_ZNK4llvm15SmallVectorBaseIjE4sizeEv(ptr noundef nonnull align 8 dereferenceable(16) %0) #17
  %7 = add i64 %6, 1
  %8 = tail call noundef i64 @_ZNK4llvm15SmallVectorBaseIjE8capacityEv(ptr noundef nonnull align 8 dereferenceable(16) %0) #17
  %9 = icmp ult i64 %8, %7
  br i1 %9, label %10, label %.lr.ph.i.i.i.i.preheader.i.i

10:                                               ; preds = %2
  tail call fastcc void @_ZN4llvm23SmallVectorTemplateBaseIN12_GLOBAL__N_19ChainElemELb0EE4growEm(ptr noundef nonnull align 8 dereferenceable(16) %0, i64 noundef %7)
  br label %.lr.ph.i.i.i.i.preheader.i.i

.lr.ph.i.i.i.i.preheader.i.i:                     ; preds = %10, %2
  %.val.i.i.i = load ptr, ptr %0, align 8
  %11 = tail call noundef i64 @_ZNK4llvm15SmallVectorBaseIjE4sizeEv(ptr noundef nonnull align 8 dereferenceable(16) %0) #17
  %12 = getelementptr inbounds %"struct.(anonymous namespace)::ChainElem", ptr %.val.i.i.i, i64 %11
  %13 = load ptr, ptr %1, align 8
  store ptr %13, ptr %12, align 8
  %14 = getelementptr inbounds nuw i8, ptr %12, i64 8
  %15 = getelementptr inbounds nuw i8, ptr %1, i64 8
  %16 = getelementptr inbounds i8, ptr %12, i64 16
  %17 = getelementptr inbounds i8, ptr %1, i64 16
  %18 = load i32, ptr %17, align 8
  store i32 %18, ptr %16, align 8
  %19 = icmp ult i32 %18, 65
  br i1 %19, label %20, label %22

20:                                               ; preds = %.lr.ph.i.i.i.i.preheader.i.i
  %21 = load i64, ptr %15, align 8
  store i64 %21, ptr %14, align 8
  br label %_ZN4llvm15SmallVectorImplIN12_GLOBAL__N_19ChainElemEE6appendESt16initializer_listIS2_E.exit

22:                                               ; preds = %.lr.ph.i.i.i.i.preheader.i.i
  tail call void @_ZN4llvm5APInt12initSlowCaseERKS0_(ptr noundef nonnull align 8 dereferenceable(12) %14, ptr noundef nonnull align 8 dereferenceable(12) %15) #17
  br label %_ZN4llvm15SmallVectorImplIN12_GLOBAL__N_19ChainElemEE6appendESt16initializer_listIS2_E.exit

_ZN4llvm15SmallVectorImplIN12_GLOBAL__N_19ChainElemEE6appendESt16initializer_listIS2_E.exit: ; preds = %20, %22
  %23 = tail call noundef i64 @_ZNK4llvm15SmallVectorBaseIjE4sizeEv(ptr noundef nonnull align 8 dereferenceable(16) %0) #17
  %24 = add i64 %23, 1
  tail call void @_ZN4llvm15SmallVectorBaseIjE8set_sizeEm(ptr noundef nonnull align 8 dereferenceable(16) %0, i64 noundef %24) #17
  ret void
}